target datalayout = "e-m:e-p270:32:32-p271:32:32-p272:64:64-i64:64-i128:128-f80:128-n8:16:32:64-S128"
target triple = "x86_64-pc-linux-gnu"

%struct.H5O_shared_t = type { i32, ptr, i32, %union.anon }
%union.anon = type { %struct.H5O_mesg_loc_t }
%struct.H5O_mesg_loc_t = type { i32, i64 }
%struct.H5S_extent_t = type { %struct.H5O_shared_t, i32, i32, i64, i32, ptr, ptr }

@.str.1 = private unnamed_addr constant [103 x i8] c"generated/home/dtcxzyw/WorkSpace/Projects/compilers/llvm-opt-benchmark/bench/hdf5/hdf5/src/H5Oshared.h\00", align 1
@H5E_OHDR_g = external global i64, align 8
@__func__.H5O__sdspace_shared_size = private unnamed_addr constant [25 x i8] c"H5O__sdspace_shared_size\00", align 1
@H5E_CANTGET_g = external global i64, align 8
@.str.14 = private unnamed_addr constant [50 x i8] c"unable to retrieve encoded size of shared message\00", align 1
@.str.15 = private unnamed_addr constant [50 x i8] c"unable to retrieve encoded size of native message\00", align 1

; Function Attrs: nounwind uwtable
define internal i64 @H5O__sdspace_size(ptr noundef %0, ptr noundef %1) #0 {
  %3 = alloca ptr, align 8
  %4 = alloca ptr, align 8
  %5 = alloca ptr, align 8
  %6 = alloca i64, align 8
  store ptr %0, ptr %3, align 8
  store ptr %1, ptr %4, align 8
  %7 = load ptr, ptr %4, align 8
  store ptr %7, ptr %5, align 8
  store i64 0, ptr %6, align 8
  %8 = load ptr, ptr %5, align 8
  %9 = getelementptr inbounds %struct.H5S_extent_t, ptr %8, i32 0, i32 2
  %10 = load i32, ptr %9, align 4
  %11 = icmp ugt i32 %10, 1
  %12 = select i1 %11, i32 0, i32 4
  %13 = add nsw i32 4, %12
  %14 = sext i32 %13 to i64
  store i64 %14, ptr %6, align 8
  %15 = load ptr, ptr %5, align 8
  %16 = getelementptr inbounds %struct.H5S_extent_t, ptr %15, i32 0, i32 4
  %17 = load i32, ptr %16, align 8
  %18 = load ptr, ptr %3, align 8
  %19 = call zeroext i8 @H5F_sizeof_size(ptr noundef %18)
  %20 = zext i8 %19 to i32
  %21 = mul i32 %17, %20
  %22 = zext i32 %21 to i64
  %23 = load i64, ptr %6, align 8
  %24 = add i64 %23, %22
  store i64 %24, ptr %6, align 8
  %25 = load ptr, ptr %5, align 8
  %26 = getelementptr inbounds %struct.H5S_extent_t, ptr %25, i32 0, i32 6
  %27 = load ptr, ptr %26, align 8
  %28 = icmp ne ptr %27, null
  br i1 %28, label %29, label %37

29:                                               ; preds = %2
  %30 = load ptr, ptr %5, align 8
  %31 = getelementptr inbounds %struct.H5S_extent_t, ptr %30, i32 0, i32 4
  %32 = load i32, ptr %31, align 8
  %33 = load ptr, ptr %3, align 8
  %34 = call zeroext i8 @H5F_sizeof_size(ptr noundef %33)
  %35 = zext i8 %34 to i32
  %36 = mul i32 %32, %35
  br label %38

37:                                               ; preds = %2
  br label %38

38:                                               ; preds = %37, %29
  %39 = phi i32 [ %36, %29 ], [ 0, %37 ]
  %40 = zext i32 %39 to i64
  %41 = load i64, ptr %6, align 8
  %42 = add i64 %41, %40
  store i64 %42, ptr %6, align 8
  %43 = load i64, ptr %6, align 8
  ret i64 %43
}

; Function Attrs: nounwind uwtable
define internal i64 @H5O__sdspace_shared_size(ptr noundef %0, i1 noundef zeroext %1, ptr noundef %2) #0 {
  %4 = alloca ptr, align 8
  %5 = alloca i8, align 1
  %6 = alloca ptr, align 8
  %7 = alloca ptr, align 8
  %8 = alloca i64, align 8
  %9 = alloca i8, align 1
  store ptr %0, ptr %4, align 8
  %10 = zext i1 %1 to i8
  store i8 %10, ptr %5, align 1
  store ptr %2, ptr %6, align 8
  %11 = load ptr, ptr %6, align 8
  store ptr %11, ptr %7, align 8
  store i64 0, ptr %8, align 8
  store i8 0, ptr %9, align 1
  %12 = load ptr, ptr %7, align 8
  %13 = getelementptr inbounds %struct.H5O_shared_t, ptr %12, i32 0, i32 0
  %14 = load i32, ptr %13, align 8
  %15 = icmp eq i32 %14, 1
  br i1 %15, label %21, label %16

16:                                               ; preds = %3
  %17 = load ptr, ptr %7, align 8
  %18 = getelementptr inbounds %struct.H5O_shared_t, ptr %17, i32 0, i32 0
  %19 = load i32, ptr %18, align 8
  %20 = icmp eq i32 %19, 2
  br i1 %20, label %21, label %22

21:                                               ; preds = %16, %3
  br i1 true, label %23, label %47

22:                                               ; preds = %16
  br i1 false, label %23, label %47

23:                                               ; preds = %22, %21
  %24 = load i8, ptr %5, align 1
  %25 = trunc i8 %24 to i1
  br i1 %25, label %47, label %26

26:                                               ; preds = %23
  %27 = load ptr, ptr %4, align 8
  %28 = load ptr, ptr %7, align 8
  %29 = call i64 @H5O__shared_size(ptr noundef %27, ptr noundef %28)
  store i64 %29, ptr %8, align 8
  %30 = icmp eq i64 0, %29
  br i1 %30, label %31, label %46

31:                                               ; preds = %26
  br label %32

32:                                               ; preds = %31
  br label %33

33:                                               ; preds = %32
  br label %34

34:                                               ; preds = %33
  %35 = load i64, ptr @H5E_OHDR_g, align 8
  %36 = load i64, ptr @H5E_CANTGET_g, align 8
  %37 = call i32 (ptr, ptr, i32, i64, i64, ptr, ...) @H5E_printf_stack(ptr noundef @.str.1, ptr noundef @__func__.H5O__sdspace_shared_size, i32 noundef 167, i64 noundef %35, i64 noundef %36, ptr noundef @.str.14)
  br label %38

38:                                               ; preds = %34
  store i8 1, ptr %9, align 1
  %39 = load i8, ptr %9, align 1
  %40 = trunc i8 %39 to i1
  %41 = zext i1 %40 to i8
  store i8 %41, ptr %9, align 1
  br label %42

42:                                               ; preds = %38
  br label %43

43:                                               ; preds = %42
  store i64 0, ptr %8, align 8
  br label %69

44:                                               ; No predecessors!
  br label %45

45:                                               ; preds = %44
  br label %46

46:                                               ; preds = %45, %26
  br label %68

47:                                               ; preds = %23, %22, %21
  %48 = load ptr, ptr %4, align 8
  %49 = load ptr, ptr %6, align 8
  %50 = call i64 @H5O__sdspace_size(ptr noundef %48, ptr noundef %49)
  store i64 %50, ptr %8, align 8
  %51 = icmp eq i64 0, %50
  br i1 %51, label %52, label %67

52:                                               ; preds = %47
  br label %53

53:                                               ; preds = %52
  br label %54

54:                                               ; preds = %53
  br label %55

55:                                               ; preds = %54
  %56 = load i64, ptr @H5E_OHDR_g, align 8
  %57 = load i64, ptr @H5E_CANTGET_g, align 8
  %58 = call i32 (ptr, ptr, i32, i64, i64, ptr, ...) @H5E_printf_stack(ptr noundef @.str.1, ptr noundef @__func__.H5O__sdspace_shared_size, i32 noundef 172, i64 noundef %56, i64 noundef %57, ptr noundef @.str.15)
  br label %59

59:                                               ; preds = %55
  store i8 1, ptr %9, align 1
  %60 = load i8, ptr %9, align 1
  %61 = trunc i8 %60 to i1
  %62 = zext i1 %61 to i8
  store i8 %62, ptr %9, align 1
  br label %63

63:                                               ; preds = %59
  br label %64

64:                                               ; preds = %63
  store i64 0, ptr %8, align 8
  br label %69

65:                                               ; No predecessors!
  br label %66

66:                                               ; preds = %65
  br label %67

67:                                               ; preds = %66, %47
  br label %68

68:                                               ; preds = %67, %46
  br label %69

69:                                               ; preds = %68, %64, %43
  %70 = load i64, ptr %8, align 8
  ret i64 %70
}