; Function Attrs: nounwind uwtable
define internal i64 @H5O__sdspace_shared_size(ptr noundef %0, i1 noundef zeroext %1, ptr noundef %2) #0 {
  %4 = load i32, ptr %2, align 8
  %5 = add i32 %4, -3
  %switch = icmp ult i32 %5, -2
  %brmerge = or i1 %switch, %1
  br i1 %brmerge, label %13, label %6

6:                                                ; preds = %3
  %7 = tail call i64 @H5O__shared_size(ptr noundef %0, ptr noundef nonnull %2) #5
  %8 = icmp eq i64 %7, 0
  br i1 %8, label %9, label %35

9:                                                ; preds = %6
  %10 = load i64, ptr @H5E_OHDR_g, align 8
  %11 = load i64, ptr @H5E_CANTGET_g, align 8
  %12 = tail call i32 (ptr, ptr, i32, i64, i64, ptr, ...) @H5E_printf_stack(ptr noundef nonnull @.str.1, ptr noundef nonnull @__func__.H5O__sdspace_shared_size, i32 noundef 167, i64 noundef %10, i64 noundef %11, ptr noundef nonnull @.str.14) #5
  br label %35

13:                                               ; preds = %3
  %14 = getelementptr inbounds i8, ptr %2, i64 44
  %15 = load i32, ptr %14, align 4
  %16 = getelementptr inbounds i8, ptr %2, i64 56
  %17 = load i32, ptr %16, align 8
  %18 = tail call zeroext i8 @H5F_sizeof_size(ptr noundef %0) #5
  %19 = getelementptr inbounds i8, ptr %2, i64 72
  %20 = load ptr, ptr %19, align 8
  %.not.i = icmp eq ptr %20, null
  br i1 %.not.i, label %H5O__sdspace_size.exit, label %21

21:                                               ; preds = %13
  %22 = load i32, ptr %16, align 8
  %23 = tail call zeroext i8 @H5F_sizeof_size(ptr noundef %0) #5
  %24 = zext i8 %23 to i32
  %25 = mul i32 %22, %24
  %26 = zext i32 %25 to i64
  br label %H5O__sdspace_size.exit

H5O__sdspace_size.exit:                           ; preds = %13, %21
  %27 = phi i64 [ %26, %21 ], [ 0, %13 ]
  %28 = icmp ugt i32 %15, 1
  %29 = select i1 %28, i64 4, i64 8
  %30 = zext i8 %18 to i32
  %31 = mul i32 %17, %30
  %32 = zext i32 %31 to i64
  %33 = add nuw nsw i64 %29, %32
  %34 = add nuw nsw i64 %33, %27
  br label %35

35:                                               ; preds = %H5O__sdspace_size.exit, %6, %9
  %.0 = phi i64 [ %34, %H5O__sdspace_size.exit ], [ 0, %9 ], [ %7, %6 ]
  ret i64 %.0
}